(dp1
S'sort_id'
p2
NsS'sort_order'
p3
NsS'columns'
p4
(dp5
S'Priorit\xc3\xa4t'
p6
(dp7
S'position'
p8
I3
sS'width'
p9
I191
ssS'Gr\xc3\xb6\xc3\x9fe'
p10
(dp11
g8
I1
sg9
I63
ssS'Dateiname'
p12
(dp13
g8
I0
sg9
I349
ssS'Fortschritt'
p14
(dp15
g8
I2
sg9
I100
sss.